; Function Attrs: nounwind memory(readwrite, argmem: read) uwtable
define internal fastcc range(i32 0, 2) i32 @arkode_butcher_order6j(ptr noundef readonly captures(address_is_null) %0, ptr noundef readonly captures(address_is_null) %1, ptr noundef readonly captures(address_is_null) %2, ptr noundef readonly captures(address_is_null) %3, ptr noundef readonly captures(address_is_null) %4, ptr noundef readonly captures(address_is_null) %5, i32 noundef %6) unnamed_addr #10 {
  %8 = sext i32 %6 to i64
  %9 = tail call noalias ptr @calloc(i64 noundef %8, i64 noundef 8) #16
  %10 = tail call noalias ptr @calloc(i64 noundef %8, i64 noundef 8) #16
  %11 = icmp eq ptr %4, null
  %12 = icmp eq ptr %5, null
  %or.cond.i = or i1 %11, %12
  %13 = icmp eq ptr %9, null
  %or.cond3.i = or i1 %or.cond.i, %13
  %14 = icmp slt i32 %6, 1
  %or.cond5.i = or i1 %14, %or.cond3.i
  br i1 %or.cond5.i, label %arkode_butcher_mv.exit, label %.preheader.us.preheader.i

.preheader.us.preheader.i:                        ; preds = %7
  %15 = zext nneg i32 %6 to i64
  %16 = shl nuw nsw i64 %15, 3
  br label %.preheader.us.i

.preheader.us.i:                                  ; preds = %._crit_edge.us.i, %.preheader.us.preheader.i
  %indvars.iv40.i = phi i64 [ 0, %.preheader.us.preheader.i ], [ %indvars.iv.next41.i, %._crit_edge.us.i ]
  %17 = getelementptr inbounds nuw ptr, ptr %4, i64 %indvars.iv40.i
  %18 = load ptr, ptr %17, align 8, !tbaa !12
  %19 = getelementptr inbounds nuw double, ptr %9, i64 %indvars.iv40.i
  %.promoted.us.i = load double, ptr %19, align 8, !tbaa !18
  br label %20

20:                                               ; preds = %20, %.preheader.us.i
  %indvars.iv.i = phi i64 [ 0, %.preheader.us.i ], [ %indvars.iv.next.i, %20 ]
  %21 = phi double [ %.promoted.us.i, %.preheader.us.i ], [ %26, %20 ]
  %22 = getelementptr inbounds nuw double, ptr %18, i64 %indvars.iv.i
  %23 = load double, ptr %22, align 8, !tbaa !18
  %24 = getelementptr inbounds nuw double, ptr %5, i64 %indvars.iv.i
  %25 = load double, ptr %24, align 8, !tbaa !18
  %26 = tail call double @llvm.fmuladd.f64(double %23, double %25, double %21)
  %indvars.iv.next.i = add nuw nsw i64 %indvars.iv.i, 1
  %exitcond.not.i = icmp eq i64 %indvars.iv.next.i, %15
  br i1 %exitcond.not.i, label %._crit_edge.us.i, label %20

._crit_edge.us.i:                                 ; preds = %20
  store double %26, ptr %19, align 8, !tbaa !18
  %indvars.iv.next41.i = add nuw nsw i64 %indvars.iv40.i, 1
  %exitcond44.not.i = icmp eq i64 %indvars.iv.next41.i, %15
  br i1 %exitcond44.not.i, label %27, label %.preheader.us.i

arkode_butcher_mv.exit:                           ; preds = %7
  tail call void @free(ptr noundef %9) #17
  tail call void @free(ptr noundef %10) #17
  br label %arkode_butcher_dot.exit

27:                                               ; preds = %._crit_edge.us.i
  %28 = icmp eq ptr %3, null
  %29 = icmp eq ptr %10, null
  %or.cond3.i36 = or i1 %28, %29
  br i1 %or.cond3.i36, label %arkode_butcher_mv.exit49, label %.preheader.us.i39

.preheader.us.i39:                                ; preds = %27, %._crit_edge.us.i45
  %indvars.iv40.i40 = phi i64 [ %indvars.iv.next41.i46, %._crit_edge.us.i45 ], [ 0, %27 ]
  %30 = getelementptr inbounds nuw ptr, ptr %3, i64 %indvars.iv40.i40
  %31 = load ptr, ptr %30, align 8, !tbaa !12
  %32 = getelementptr inbounds nuw double, ptr %10, i64 %indvars.iv40.i40
  %.promoted.us.i41 = load double, ptr %32, align 8, !tbaa !18
  br label %33

33:                                               ; preds = %33, %.preheader.us.i39
  %indvars.iv.i42 = phi i64 [ 0, %.preheader.us.i39 ], [ %indvars.iv.next.i43, %33 ]
  %34 = phi double [ %.promoted.us.i41, %.preheader.us.i39 ], [ %39, %33 ]
  %35 = getelementptr inbounds nuw double, ptr %31, i64 %indvars.iv.i42
  %36 = load double, ptr %35, align 8, !tbaa !18
  %37 = getelementptr inbounds nuw double, ptr %9, i64 %indvars.iv.i42
  %38 = load double, ptr %37, align 8, !tbaa !18
  %39 = tail call double @llvm.fmuladd.f64(double %36, double %38, double %34)
  %indvars.iv.next.i43 = add nuw nsw i64 %indvars.iv.i42, 1
  %exitcond.not.i44 = icmp eq i64 %indvars.iv.next.i43, %15
  br i1 %exitcond.not.i44, label %._crit_edge.us.i45, label %33

._crit_edge.us.i45:                               ; preds = %33
  store double %39, ptr %32, align 8, !tbaa !18
  %indvars.iv.next41.i46 = add nuw nsw i64 %indvars.iv40.i40, 1
  %exitcond44.not.i47 = icmp eq i64 %indvars.iv.next41.i46, %15
  br i1 %exitcond44.not.i47, label %40, label %.preheader.us.i39

arkode_butcher_mv.exit49:                         ; preds = %27
  tail call void @free(ptr noundef nonnull %9) #17
  tail call void @free(ptr noundef %10) #17
  br label %arkode_butcher_dot.exit

40:                                               ; preds = %._crit_edge.us.i45
  %41 = icmp eq ptr %2, null
  br i1 %41, label %arkode_butcher_mv.exit64, label %.preheader.us.preheader.i53

.preheader.us.preheader.i53:                      ; preds = %40
  tail call void @llvm.memset.p0.i64(ptr nonnull align 8 %9, i8 0, i64 %16, i1 false), !tbaa !18
  br label %.preheader.us.i54

.preheader.us.i54:                                ; preds = %._crit_edge.us.i60, %.preheader.us.preheader.i53
  %indvars.iv40.i55 = phi i64 [ 0, %.preheader.us.preheader.i53 ], [ %indvars.iv.next41.i61, %._crit_edge.us.i60 ]
  %42 = getelementptr inbounds nuw ptr, ptr %2, i64 %indvars.iv40.i55
  %43 = load ptr, ptr %42, align 8, !tbaa !12
  %44 = getelementptr inbounds nuw double, ptr %9, i64 %indvars.iv40.i55
  %.promoted.us.i56 = load double, ptr %44, align 8, !tbaa !18
  br label %45

45:                                               ; preds = %45, %.preheader.us.i54
  %indvars.iv.i57 = phi i64 [ 0, %.preheader.us.i54 ], [ %indvars.iv.next.i58, %45 ]
  %46 = phi double [ %.promoted.us.i56, %.preheader.us.i54 ], [ %51, %45 ]
  %47 = getelementptr inbounds nuw double, ptr %43, i64 %indvars.iv.i57
  %48 = load double, ptr %47, align 8, !tbaa !18
  %49 = getelementptr inbounds nuw double, ptr %10, i64 %indvars.iv.i57
  %50 = load double, ptr %49, align 8, !tbaa !18
  %51 = tail call double @llvm.fmuladd.f64(double %48, double %50, double %46)
  %indvars.iv.next.i58 = add nuw nsw i64 %indvars.iv.i57, 1
  %exitcond.not.i59 = icmp eq i64 %indvars.iv.next.i58, %15
  br i1 %exitcond.not.i59, label %._crit_edge.us.i60, label %45

._crit_edge.us.i60:                               ; preds = %45
  store double %51, ptr %44, align 8, !tbaa !18
  %indvars.iv.next41.i61 = add nuw nsw i64 %indvars.iv40.i55, 1
  %exitcond44.not.i62 = icmp eq i64 %indvars.iv.next41.i61, %15
  br i1 %exitcond44.not.i62, label %52, label %.preheader.us.i54

arkode_butcher_mv.exit64:                         ; preds = %40
  tail call void @free(ptr noundef nonnull %9) #17
  tail call void @free(ptr noundef nonnull %10) #17
  br label %arkode_butcher_dot.exit

52:                                               ; preds = %._crit_edge.us.i60
  %53 = icmp eq ptr %1, null
  br i1 %53, label %arkode_butcher_vv.exit, label %.preheader.i

.preheader.i:                                     ; preds = %52, %.preheader.i
  %indvars.iv.i68 = phi i64 [ %indvars.iv.next.i69, %.preheader.i ], [ 0, %52 ]
  %54 = getelementptr inbounds nuw double, ptr %1, i64 %indvars.iv.i68
  %55 = load double, ptr %54, align 8, !tbaa !18
  %56 = getelementptr inbounds nuw double, ptr %9, i64 %indvars.iv.i68
  %57 = load double, ptr %56, align 8, !tbaa !18
  %58 = fmul double %55, %57
  %59 = getelementptr inbounds nuw double, ptr %10, i64 %indvars.iv.i68
  store double %58, ptr %59, align 8, !tbaa !18
  %indvars.iv.next.i69 = add nuw nsw i64 %indvars.iv.i68, 1
  %exitcond.not.i70 = icmp eq i64 %indvars.iv.next.i69, %15
  br i1 %exitcond.not.i70, label %60, label %.preheader.i

arkode_butcher_vv.exit:                           ; preds = %52
  tail call void @free(ptr noundef nonnull %9) #17
  tail call void @free(ptr noundef nonnull %10) #17
  br label %arkode_butcher_dot.exit

60:                                               ; preds = %.preheader.i
  %61 = icmp eq ptr %0, null
  br i1 %61, label %arkode_butcher_dot.exit, label %.preheader

.preheader:                                       ; preds = %60, %.preheader
  %indvars.iv.i74 = phi i64 [ %indvars.iv.next.i75, %.preheader ], [ 0, %60 ]
  %62 = phi double [ %67, %.preheader ], [ 0.000000e+00, %60 ]
  %63 = getelementptr inbounds nuw double, ptr %0, i64 %indvars.iv.i74
  %64 = load double, ptr %63, align 8, !tbaa !18
  %65 = getelementptr inbounds nuw double, ptr %10, i64 %indvars.iv.i74
  %66 = load double, ptr %65, align 8, !tbaa !18
  %67 = tail call double @llvm.fmuladd.f64(double %64, double %66, double %62)
  %indvars.iv.next.i75 = add nuw nsw i64 %indvars.iv.i74, 1
  %exitcond.not.i76 = icmp eq i64 %indvars.iv.next.i75, %15
  br i1 %exitcond.not.i76, label %68, label %.preheader

68:                                               ; preds = %.preheader
  tail call void @free(ptr noundef %9) #17
  tail call void @free(ptr noundef nonnull %10) #17
  %69 = fadd double %67, 0xBF7C71C71C71C71C
  %70 = tail call double @llvm.fabs.f64(double %69)
  %71 = fcmp ule double %70, 0x3E50000000000000
  %72 = zext i1 %71 to i32
  br label %arkode_butcher_dot.exit

arkode_butcher_dot.exit:                          ; preds = %60, %68, %arkode_butcher_vv.exit, %arkode_butcher_mv.exit64, %arkode_butcher_mv.exit49, %arkode_butcher_mv.exit
  %.0 = phi i32 [ 0, %arkode_butcher_mv.exit ], [ 0, %arkode_butcher_mv.exit49 ], [ 0, %arkode_butcher_mv.exit64 ], [ 0, %arkode_butcher_vv.exit ], [ %72, %68 ], [ 0, %60 ]
  ret i32 %.0
}